; Function Attrs: nounwind uwtable
define dso_local noundef ptr @context_transform_for_eval(ptr noundef readonly %0, ptr noundef writeonly %1, ptr noundef %2) local_unnamed_addr #0 {
  %4 = getelementptr inbounds i8, ptr %0, i64 8
  %5 = load ptr, ptr %4, align 8
  %6 = icmp eq ptr %5, %2
  br i1 %6, label %43, label %7

7:                                                ; preds = %3
  %8 = load ptr, ptr getelementptr inbounds (%struct.GlobalContext, ptr @global_context, i64 0, i32 13), align 8
  %.not.i.i = icmp eq ptr %8, null
  br i1 %.not.i.i, label %.critedge.i.i, label %9

9:                                                ; preds = %7
  %10 = getelementptr inbounds i8, ptr %8, i64 -8
  %11 = load i32, ptr %10, align 4
  %12 = icmp eq i32 %11, 0
  br i1 %12, label %.critedge.i.i, label %16

.critedge.i.i:                                    ; preds = %9, %7
  %13 = tail call ptr @calloc_arena(i64 noundef 520) #10
  %14 = getelementptr inbounds i8, ptr %13, i64 4
  store i32 64, ptr %14, align 4
  %15 = getelementptr inbounds i8, ptr %13, i64 8
  br label %global_context_acquire_locals_list.exit.i

16:                                               ; preds = %9
  %17 = add i32 %11, -1
  %18 = zext i32 %17 to i64
  %19 = getelementptr inbounds ptr, ptr %8, i64 %18
  %20 = load ptr, ptr %19, align 8
  store i32 %17, ptr %10, align 4
  %.not.i.i.i = icmp eq ptr %20, null
  br i1 %.not.i.i.i, label %global_context_acquire_locals_list.exit.i, label %21

21:                                               ; preds = %16
  %22 = getelementptr inbounds i8, ptr %20, i64 -8
  store i32 0, ptr %22, align 4
  br label %global_context_acquire_locals_list.exit.i

global_context_acquire_locals_list.exit.i:        ; preds = %21, %16, %.critedge.i.i
  %.014.i.i = phi ptr [ %15, %.critedge.i.i ], [ null, %16 ], [ %20, %21 ]
  %23 = load ptr, ptr getelementptr inbounds (%struct.GlobalContext, ptr @global_context, i64 0, i32 13), align 8
  %.not.i5.i = icmp eq ptr %23, null
  br i1 %.not.i5.i, label %.critedge.i8.i, label %24

24:                                               ; preds = %global_context_acquire_locals_list.exit.i
  %25 = getelementptr inbounds i8, ptr %23, i64 -8
  %26 = load i32, ptr %25, align 4
  %27 = icmp eq i32 %26, 0
  br i1 %27, label %.critedge.i8.i, label %31

.critedge.i8.i:                                   ; preds = %24, %global_context_acquire_locals_list.exit.i
  %28 = tail call ptr @calloc_arena(i64 noundef 520) #10
  %29 = getelementptr inbounds i8, ptr %28, i64 4
  store i32 64, ptr %29, align 4
  %30 = getelementptr inbounds i8, ptr %28, i64 8
  br label %sema_context_init.exit

31:                                               ; preds = %24
  %32 = add i32 %26, -1
  %33 = zext i32 %32 to i64
  %34 = getelementptr inbounds ptr, ptr %23, i64 %33
  %35 = load ptr, ptr %34, align 8
  store i32 %32, ptr %25, align 4
  %.not.i.i6.i = icmp eq ptr %35, null
  br i1 %.not.i.i6.i, label %sema_context_init.exit, label %36

36:                                               ; preds = %31
  %37 = getelementptr inbounds i8, ptr %35, i64 -8
  store i32 0, ptr %37, align 4
  br label %sema_context_init.exit

sema_context_init.exit:                           ; preds = %.critedge.i8.i, %31, %36
  %.014.i7.i = phi ptr [ %30, %.critedge.i8.i ], [ null, %31 ], [ %35, %36 ]
  store ptr null, ptr %1, align 8
  %.sroa.2.0..sroa_idx.i = getelementptr inbounds i8, ptr %1, i64 8
  store ptr %2, ptr %.sroa.2.0..sroa_idx.i, align 8
  %.sroa.3.0..sroa_idx.i = getelementptr inbounds i8, ptr %1, i64 16
  store ptr %2, ptr %.sroa.3.0..sroa_idx.i, align 8
  %.sroa.4.0..sroa_idx.i = getelementptr inbounds i8, ptr %1, i64 24
  tail call void @llvm.memset.p0.i64(ptr noundef nonnull align 8 dereferenceable(192) %.sroa.4.0..sroa_idx.i, i8 0, i64 192, i1 false)
  %.sroa.41.0..sroa_idx.i = getelementptr inbounds i8, ptr %1, i64 216
  store ptr %.014.i.i, ptr %.sroa.41.0..sroa_idx.i, align 8
  %.sroa.5.0..sroa_idx.i = getelementptr inbounds i8, ptr %1, i64 224
  tail call void @llvm.memset.p0.i64(ptr noundef nonnull align 8 dereferenceable(16) %.sroa.5.0..sroa_idx.i, i8 0, i64 16, i1 false)
  %.sroa.52.0..sroa_idx.i = getelementptr inbounds i8, ptr %1, i64 240
  store ptr %.014.i7.i, ptr %.sroa.52.0..sroa_idx.i, align 8
  %.sroa.6.0..sroa_idx.i = getelementptr inbounds i8, ptr %1, i64 248
  tail call void @llvm.memset.p0.i64(ptr noundef nonnull align 8 dereferenceable(56) %.sroa.6.0..sroa_idx.i, i8 0, i64 56, i1 false)
  %38 = getelementptr inbounds i8, ptr %0, i64 16
  %39 = load ptr, ptr %38, align 8
  store ptr %39, ptr %.sroa.3.0..sroa_idx.i, align 8
  %40 = getelementptr inbounds i8, ptr %0, i64 24
  tail call void @llvm.memcpy.p0.p0.i64(ptr noundef nonnull align 8 dereferenceable(24) %.sroa.4.0..sroa_idx.i, ptr noundef nonnull align 8 dereferenceable(24) %40, i64 24, i1 false)
  %41 = getelementptr inbounds i8, ptr %0, i64 48
  %42 = load ptr, ptr %41, align 8
  br label %43

43:                                               ; preds = %3, %sema_context_init.exit
  %.sink16 = phi i64 [ 48, %sema_context_init.exit ], [ 8, %3 ]
  %.sink = phi ptr [ %42, %sema_context_init.exit ], [ null, %3 ]
  %.0 = phi ptr [ %1, %sema_context_init.exit ], [ %0, %3 ]
  %44 = getelementptr inbounds i8, ptr %1, i64 %.sink16
  store ptr %.sink, ptr %44, align 8
  ret ptr %.0
}